; Function Attrs: nounwind uwtable
define ptr @l_Lean_pushScope___rarg___lambda__2(ptr noundef %0, ptr noundef %1, ptr noundef %2, ptr noundef %3) #2 {
  %5 = getelementptr i8, ptr %3, i64 8
  %.val = load i64, ptr %5, align 8, !tbaa !12
  %6 = ptrtoint ptr %3 to i64
  %7 = and i64 %6, 1
  %.not = icmp eq i64 %7, 0
  br i1 %.not, label %8, label %lean_inc.exit19

8:                                                ; preds = %4
  %.val.i = load i32, ptr %3, align 4, !tbaa !4
  %9 = icmp sgt i32 %.val.i, 0
  br i1 %9, label %10, label %12, !prof !11

10:                                               ; preds = %8
  %11 = add nuw i32 %.val.i, 1
  store i32 %11, ptr %3, align 4, !tbaa !4
  br label %lean_inc.exit19

12:                                               ; preds = %8
  %.not.i = icmp eq i32 %.val.i, 0
  br i1 %.not.i, label %lean_inc.exit19, label %13

13:                                               ; preds = %12
  tail call void @lean_inc_ref_cold(ptr noundef nonnull %3) #7
  br label %lean_inc.exit19

lean_inc.exit19:                                  ; preds = %13, %12, %10, %4
  %14 = ptrtoint ptr %2 to i64
  %15 = and i64 %14, 1
  %.not26 = icmp eq i64 %15, 0
  br i1 %.not26, label %16, label %lean_inc.exit18

16:                                               ; preds = %lean_inc.exit19
  %.val.i20 = load i32, ptr %2, align 4, !tbaa !4
  %17 = icmp sgt i32 %.val.i20, 0
  br i1 %17, label %18, label %20, !prof !11

18:                                               ; preds = %16
  %19 = add nuw i32 %.val.i20, 1
  store i32 %19, ptr %2, align 4, !tbaa !4
  br label %lean_inc.exit18

20:                                               ; preds = %16
  %.not.i21 = icmp eq i32 %.val.i20, 0
  br i1 %.not.i21, label %lean_inc.exit18, label %21

21:                                               ; preds = %20
  tail call void @lean_inc_ref_cold(ptr noundef nonnull %2) #7
  br label %lean_inc.exit18

lean_inc.exit18:                                  ; preds = %21, %20, %18, %lean_inc.exit19
  %22 = ptrtoint ptr %0 to i64
  %23 = and i64 %22, 1
  %.not27 = icmp eq i64 %23, 0
  br i1 %.not27, label %24, label %lean_inc.exit

24:                                               ; preds = %lean_inc.exit18
  %.val.i23 = load i32, ptr %0, align 4, !tbaa !4
  %25 = icmp sgt i32 %.val.i23, 0
  br i1 %25, label %26, label %28, !prof !11

26:                                               ; preds = %24
  %27 = add nuw i32 %.val.i23, 1
  store i32 %27, ptr %0, align 4, !tbaa !4
  br label %lean_inc.exit

28:                                               ; preds = %24
  %.not.i24 = icmp eq i32 %.val.i23, 0
  br i1 %.not.i24, label %lean_inc.exit, label %29

29:                                               ; preds = %28
  tail call void @lean_inc_ref_cold(ptr noundef nonnull %0) #7
  br label %lean_inc.exit

lean_inc.exit:                                    ; preds = %29, %28, %26, %lean_inc.exit18
  %30 = tail call ptr @l_Array_forIn_x27Unsafe_loop___at_Lean_pushScope___spec__1___rarg(ptr noundef %0, ptr noundef %1, ptr noundef %2, ptr noundef nonnull %3, ptr noundef nonnull inttoptr (i64 1 to ptr), ptr noundef nonnull %3, i64 noundef %.val, i64 noundef 0, ptr noundef nonnull inttoptr (i64 1 to ptr))
  tail call void @lean_inc_heartbeat() #7
  %31 = tail call noalias ptr @mi_malloc_small(i64 noundef 32) #7
  %32 = icmp eq ptr %31, null
  br i1 %32, label %33, label %lean_alloc_closure.exit

33:                                               ; preds = %lean_inc.exit
  tail call void @lean_internal_panic_out_of_memory() #8
  unreachable

lean_alloc_closure.exit:                          ; preds = %lean_inc.exit
  %34 = getelementptr inbounds nuw i8, ptr %31, i64 4
  store i32 1, ptr %31, align 4, !tbaa !4
  store i32 -184549344, ptr %34, align 4
  %35 = getelementptr inbounds nuw i8, ptr %31, i64 8
  store ptr @l_Lean_pushScope___rarg___lambda__1___boxed, ptr %35, align 8, !tbaa !9
  %36 = getelementptr inbounds nuw i8, ptr %31, i64 16
  store i16 2, ptr %36, align 8, !tbaa !14
  %37 = getelementptr inbounds nuw i8, ptr %31, i64 18
  store i16 1, ptr %37, align 2, !tbaa !14
  %38 = getelementptr inbounds nuw i8, ptr %31, i64 24
  store ptr %0, ptr %38, align 8, !tbaa !9
  %39 = tail call ptr @lean_apply_4(ptr noundef %2, ptr noundef nonnull inttoptr (i64 1 to ptr), ptr noundef nonnull inttoptr (i64 1 to ptr), ptr noundef %30, ptr noundef nonnull %31) #7
  ret ptr %39
}